target datalayout = "e-m:e-p270:32:32-p271:32:32-p272:64:64-i64:64-i128:128-f80:128-n8:16:32:64-S128"
target triple = "x86_64-pc-linux-gnu"

%class.Sample = type { ptr, ptr, ptr, ptr, ptr, i8, float, float, float, float, float, float, float, float, float, float, float, float, float, i32, i8, i8, i8, ptr, [9 x ptr], ptr, %class.SampleDebugDraw }
%class.SampleDebugDraw = type { %class.DebugDrawGL }
%class.DebugDrawGL = type { %struct.duDebugDraw }
%struct.duDebugDraw = type { ptr }
%struct.dtCompressedTile = type { i32, ptr, ptr, i32, ptr, i32, i32, ptr }
%struct.dtTileCacheParams = type { [3 x float], float, float, i32, i32, float, float, float, float, i32, i32 }
%class.dtTileCache = type { i32, i32, ptr, ptr, ptr, i32, i32, %struct.dtTileCacheParams, ptr, ptr, ptr, ptr, ptr, [64 x %"struct.dtTileCache::ObstacleRequest"], i32, [64 x i32], i32 }
%"struct.dtTileCache::ObstacleRequest" = type { i32, i32 }
%class.Sample_TempObstacles = type <{ %class.Sample, i8, [7 x i8], ptr, ptr, ptr, ptr, float, i32, i32, i32, i32, i32, i32, i32, float, [4 x i8] }>
%struct.TileCacheSetHeader = type { i32, i32, i32, %struct.dtNavMeshParams, %struct.dtTileCacheParams }
%struct.dtNavMeshParams = type { [3 x float], float, float, i32, i32 }
%struct.TileCacheTileHeader = type { i32, i32 }

@.str.52 = private unnamed_addr constant [3 x i8] c"wb\00", align 1

; Function Attrs: mustprogress nounwind uwtable
define linkonce_odr dso_local noundef ptr @_ZNK11dtTileCache9getParamsEv(ptr noundef nonnull align 8 dereferenceable(912) %0) #0 comdat align 2 {
  %2 = alloca ptr, align 8
  store ptr %0, ptr %2, align 8
  %3 = load ptr, ptr %2, align 8
  %4 = getelementptr inbounds %class.dtTileCache, ptr %3, i32 0, i32 7
  ret ptr %4
}

; Function Attrs: mustprogress nounwind uwtable
define linkonce_odr dso_local noundef ptr @_ZNK11dtTileCache7getTileEi(ptr noundef nonnull align 8 dereferenceable(912) %0, i32 noundef %1) #0 comdat align 2 {
  %3 = alloca ptr, align 8
  %4 = alloca i32, align 4
  store ptr %0, ptr %3, align 8
  store i32 %1, ptr %4, align 4
  %5 = load ptr, ptr %3, align 8
  %6 = getelementptr inbounds %class.dtTileCache, ptr %5, i32 0, i32 4
  %7 = load ptr, ptr %6, align 8
  %8 = load i32, ptr %4, align 4
  %9 = sext i32 %8 to i64
  %10 = getelementptr inbounds %struct.dtCompressedTile, ptr %7, i64 %9
  ret ptr %10
}

; Function Attrs: mustprogress nounwind uwtable
define linkonce_odr dso_local noundef i32 @_ZNK11dtTileCache12getTileCountEv(ptr noundef nonnull align 8 dereferenceable(912) %0) #0 comdat align 2 {
  %2 = alloca ptr, align 8
  store ptr %0, ptr %2, align 8
  %3 = load ptr, ptr %2, align 8
  %4 = getelementptr inbounds %class.dtTileCache, ptr %3, i32 0, i32 7
  %5 = getelementptr inbounds %struct.dtTileCacheParams, ptr %4, i32 0, i32 9
  %6 = load i32, ptr %5, align 4
  ret i32 %6
}

; Function Attrs: mustprogress uwtable
define dso_local void @_ZN20Sample_TempObstacles7saveAllEPKc(ptr noundef nonnull align 8 dereferenceable(276) %0, ptr noundef %1) #5 align 2 {
  %3 = alloca ptr, align 8
  %4 = alloca ptr, align 8
  %5 = alloca ptr, align 8
  %6 = alloca %struct.TileCacheSetHeader, align 4
  %7 = alloca i32, align 4
  %8 = alloca ptr, align 8
  %9 = alloca i32, align 4
  %10 = alloca ptr, align 8
  %11 = alloca %struct.TileCacheTileHeader, align 4
  store ptr %0, ptr %3, align 8
  store ptr %1, ptr %4, align 8
  %12 = load ptr, ptr %3, align 8
  %13 = getelementptr inbounds %class.Sample_TempObstacles, ptr %12, i32 0, i32 6
  %14 = load ptr, ptr %13, align 8
  %15 = icmp ne ptr %14, null
  br i1 %15, label %17, label %16

16:                                               ; preds = %2
  br label %120

17:                                               ; preds = %2
  %18 = load ptr, ptr %4, align 8
  %19 = call noalias ptr @fopen(ptr noundef %18, ptr noundef @.str.52)
  store ptr %19, ptr %5, align 8
  %20 = load ptr, ptr %5, align 8
  %21 = icmp ne ptr %20, null
  br i1 %21, label %23, label %22

22:                                               ; preds = %17
  br label %120

23:                                               ; preds = %17
  %24 = getelementptr inbounds %struct.TileCacheSetHeader, ptr %6, i32 0, i32 0
  store i32 1414743380, ptr %24, align 4
  %25 = getelementptr inbounds %struct.TileCacheSetHeader, ptr %6, i32 0, i32 1
  store i32 1, ptr %25, align 4
  %26 = getelementptr inbounds %struct.TileCacheSetHeader, ptr %6, i32 0, i32 2
  store i32 0, ptr %26, align 4
  store i32 0, ptr %7, align 4
  br label %27

27:                                               ; preds = %55, %23
  %28 = load i32, ptr %7, align 4
  %29 = getelementptr inbounds %class.Sample_TempObstacles, ptr %12, i32 0, i32 6
  %30 = load ptr, ptr %29, align 8
  %31 = call noundef i32 @_ZNK11dtTileCache12getTileCountEv(ptr noundef nonnull align 8 dereferenceable(912) %30)
  %32 = icmp slt i32 %28, %31
  br i1 %32, label %33, label %58

33:                                               ; preds = %27
  %34 = getelementptr inbounds %class.Sample_TempObstacles, ptr %12, i32 0, i32 6
  %35 = load ptr, ptr %34, align 8
  %36 = load i32, ptr %7, align 4
  %37 = call noundef ptr @_ZNK11dtTileCache7getTileEi(ptr noundef nonnull align 8 dereferenceable(912) %35, i32 noundef %36)
  store ptr %37, ptr %8, align 8
  %38 = load ptr, ptr %8, align 8
  %39 = icmp ne ptr %38, null
  br i1 %39, label %40, label %50

40:                                               ; preds = %33
  %41 = load ptr, ptr %8, align 8
  %42 = getelementptr inbounds %struct.dtCompressedTile, ptr %41, i32 0, i32 1
  %43 = load ptr, ptr %42, align 8
  %44 = icmp ne ptr %43, null
  br i1 %44, label %45, label %50

45:                                               ; preds = %40
  %46 = load ptr, ptr %8, align 8
  %47 = getelementptr inbounds %struct.dtCompressedTile, ptr %46, i32 0, i32 5
  %48 = load i32, ptr %47, align 8
  %49 = icmp ne i32 %48, 0
  br i1 %49, label %51, label %50

50:                                               ; preds = %45, %40, %33
  br label %55

51:                                               ; preds = %45
  %52 = getelementptr inbounds %struct.TileCacheSetHeader, ptr %6, i32 0, i32 2
  %53 = load i32, ptr %52, align 4
  %54 = add nsw i32 %53, 1
  store i32 %54, ptr %52, align 4
  br label %55

55:                                               ; preds = %51, %50
  %56 = load i32, ptr %7, align 4
  %57 = add nsw i32 %56, 1
  store i32 %57, ptr %7, align 4
  br label %27, !llvm.loop !18

58:                                               ; preds = %27
  %59 = getelementptr inbounds %struct.TileCacheSetHeader, ptr %6, i32 0, i32 4
  %60 = getelementptr inbounds %class.Sample_TempObstacles, ptr %12, i32 0, i32 6
  %61 = load ptr, ptr %60, align 8
  %62 = call noundef ptr @_ZNK11dtTileCache9getParamsEv(ptr noundef nonnull align 8 dereferenceable(912) %61)
  call void @llvm.memcpy.p0.p0.i64(ptr align 4 %59, ptr align 4 %62, i64 52, i1 false)
  %63 = getelementptr inbounds %struct.TileCacheSetHeader, ptr %6, i32 0, i32 3
  %64 = getelementptr inbounds %class.Sample, ptr %12, i32 0, i32 2
  %65 = load ptr, ptr %64, align 8
  %66 = call noundef ptr @_ZNK9dtNavMesh9getParamsEv(ptr noundef nonnull align 8 dereferenceable(100) %65)
  call void @llvm.memcpy.p0.p0.i64(ptr align 4 %63, ptr align 4 %66, i64 28, i1 false)
  %67 = load ptr, ptr %5, align 8
  %68 = call i64 @fwrite(ptr noundef %6, i64 noundef 92, i64 noundef 1, ptr noundef %67)
  store i32 0, ptr %9, align 4
  br label %69

69:                                               ; preds = %114, %58
  %70 = load i32, ptr %9, align 4
  %71 = getelementptr inbounds %class.Sample_TempObstacles, ptr %12, i32 0, i32 6
  %72 = load ptr, ptr %71, align 8
  %73 = call noundef i32 @_ZNK11dtTileCache12getTileCountEv(ptr noundef nonnull align 8 dereferenceable(912) %72)
  %74 = icmp slt i32 %70, %73
  br i1 %74, label %75, label %117

75:                                               ; preds = %69
  %76 = getelementptr inbounds %class.Sample_TempObstacles, ptr %12, i32 0, i32 6
  %77 = load ptr, ptr %76, align 8
  %78 = load i32, ptr %9, align 4
  %79 = call noundef ptr @_ZNK11dtTileCache7getTileEi(ptr noundef nonnull align 8 dereferenceable(912) %77, i32 noundef %78)
  store ptr %79, ptr %10, align 8
  %80 = load ptr, ptr %10, align 8
  %81 = icmp ne ptr %80, null
  br i1 %81, label %82, label %92

82:                                               ; preds = %75
  %83 = load ptr, ptr %10, align 8
  %84 = getelementptr inbounds %struct.dtCompressedTile, ptr %83, i32 0, i32 1
  %85 = load ptr, ptr %84, align 8
  %86 = icmp ne ptr %85, null
  br i1 %86, label %87, label %92

87:                                               ; preds = %82
  %88 = load ptr, ptr %10, align 8
  %89 = getelementptr inbounds %struct.dtCompressedTile, ptr %88, i32 0, i32 5
  %90 = load i32, ptr %89, align 8
  %91 = icmp ne i32 %90, 0
  br i1 %91, label %93, label %92

92:                                               ; preds = %87, %82, %75
  br label %114

93:                                               ; preds = %87
  %94 = getelementptr inbounds %class.Sample_TempObstacles, ptr %12, i32 0, i32 6
  %95 = load ptr, ptr %94, align 8
  %96 = load ptr, ptr %10, align 8
  %97 = call noundef i32 @_ZNK11dtTileCache10getTileRefEPK16dtCompressedTile(ptr noundef nonnull align 8 dereferenceable(912) %95, ptr noundef %96)
  %98 = getelementptr inbounds %struct.TileCacheTileHeader, ptr %11, i32 0, i32 0
  store i32 %97, ptr %98, align 4
  %99 = load ptr, ptr %10, align 8
  %100 = getelementptr inbounds %struct.dtCompressedTile, ptr %99, i32 0, i32 5
  %101 = load i32, ptr %100, align 8
  %102 = getelementptr inbounds %struct.TileCacheTileHeader, ptr %11, i32 0, i32 1
  store i32 %101, ptr %102, align 4
  %103 = load ptr, ptr %5, align 8
  %104 = call i64 @fwrite(ptr noundef %11, i64 noundef 8, i64 noundef 1, ptr noundef %103)
  %105 = load ptr, ptr %10, align 8
  %106 = getelementptr inbounds %struct.dtCompressedTile, ptr %105, i32 0, i32 4
  %107 = load ptr, ptr %106, align 8
  %108 = load ptr, ptr %10, align 8
  %109 = getelementptr inbounds %struct.dtCompressedTile, ptr %108, i32 0, i32 5
  %110 = load i32, ptr %109, align 8
  %111 = sext i32 %110 to i64
  %112 = load ptr, ptr %5, align 8
  %113 = call i64 @fwrite(ptr noundef %107, i64 noundef %111, i64 noundef 1, ptr noundef %112)
  br label %114

114:                                              ; preds = %93, %92
  %115 = load i32, ptr %9, align 4
  %116 = add nsw i32 %115, 1
  store i32 %116, ptr %9, align 4
  br label %69, !llvm.loop !19

117:                                              ; preds = %69
  %118 = load ptr, ptr %5, align 8
  %119 = call i32 @fclose(ptr noundef %118)
  br label %120

120:                                              ; preds = %117, %22, %16
  ret void
}