; Function Attrs: mustprogress uwtable
define dso_local void @_ZN20Sample_TempObstacles7saveAllEPKc(ptr nocapture noundef nonnull readonly align 8 dereferenceable(276) %0, ptr nocapture noundef readonly %1) local_unnamed_addr #5 align 2 {
  %3 = alloca %struct.TileCacheSetHeader, align 4
  %4 = alloca %struct.TileCacheTileHeader, align 4
  %5 = getelementptr inbounds i8, ptr %0, i64 232
  %6 = load ptr, ptr %5, align 8
  %.not = icmp eq ptr %6, null
  br i1 %.not, label %67, label %7

7:                                                ; preds = %2
  %8 = tail call noalias ptr @fopen(ptr noundef %1, ptr noundef nonnull @.str.52)
  %.not26 = icmp eq ptr %8, null
  br i1 %.not26, label %67, label %9

9:                                                ; preds = %7
  store i32 1414743380, ptr %3, align 4
  %10 = getelementptr inbounds i8, ptr %3, i64 4
  store i32 1, ptr %10, align 4
  %11 = getelementptr inbounds i8, ptr %3, i64 8
  %12 = load ptr, ptr %5, align 8
  %13 = getelementptr inbounds i8, ptr %12, i64 84
  %14 = load i32, ptr %13, align 4
  %15 = icmp sgt i32 %14, 0
  br i1 %15, label %.lr.ph, label %._crit_edge

.lr.ph:                                           ; preds = %9
  %16 = getelementptr inbounds i8, ptr %12, i64 24
  %17 = load ptr, ptr %16, align 8
  %.not30 = icmp eq ptr %17, null
  br i1 %.not30, label %._crit_edge, label %.lr.ph.split.preheader

.lr.ph.split.preheader:                           ; preds = %.lr.ph
  %wide.trip.count = zext nneg i32 %14 to i64
  br label %.lr.ph.split

.lr.ph.split:                                     ; preds = %.lr.ph.split.preheader, %26
  %indvars.iv = phi i64 [ 0, %.lr.ph.split.preheader ], [ %indvars.iv.next, %26 ]
  %18 = phi i32 [ 0, %.lr.ph.split.preheader ], [ %27, %26 ]
  %19 = getelementptr inbounds %struct.dtCompressedTile, ptr %17, i64 %indvars.iv
  %20 = getelementptr inbounds i8, ptr %19, i64 8
  %21 = load ptr, ptr %20, align 8
  %.not31 = icmp eq ptr %21, null
  br i1 %.not31, label %26, label %22

22:                                               ; preds = %.lr.ph.split
  %23 = getelementptr inbounds i8, ptr %19, i64 40
  %24 = load i32, ptr %23, align 8
  %.not32 = icmp ne i32 %24, 0
  %25 = zext i1 %.not32 to i32
  %spec.select = add nsw i32 %18, %25
  br label %26

26:                                               ; preds = %22, %.lr.ph.split
  %27 = phi i32 [ %18, %.lr.ph.split ], [ %spec.select, %22 ]
  %indvars.iv.next = add nuw nsw i64 %indvars.iv, 1
  %exitcond.not = icmp eq i64 %indvars.iv.next, %wide.trip.count
  br i1 %exitcond.not, label %._crit_edge, label %.lr.ph.split, !llvm.loop !18

._crit_edge:                                      ; preds = %26, %.lr.ph, %9
  %.lcssa33 = phi i32 [ 0, %9 ], [ 0, %.lr.ph ], [ %27, %26 ]
  store i32 %.lcssa33, ptr %11, align 4
  %28 = getelementptr inbounds i8, ptr %3, i64 40
  %29 = getelementptr inbounds i8, ptr %12, i64 40
  call void @llvm.memcpy.p0.p0.i64(ptr noundef nonnull align 4 dereferenceable(52) %28, ptr noundef nonnull align 4 dereferenceable(52) %29, i64 52, i1 false)
  %30 = getelementptr inbounds i8, ptr %3, i64 12
  %31 = getelementptr inbounds i8, ptr %0, i64 16
  %32 = load ptr, ptr %31, align 8
  %33 = tail call noundef ptr @_ZNK9dtNavMesh9getParamsEv(ptr noundef nonnull align 8 dereferenceable(100) %32)
  call void @llvm.memcpy.p0.p0.i64(ptr noundef nonnull align 4 dereferenceable(28) %30, ptr noundef nonnull align 4 dereferenceable(28) %33, i64 28, i1 false)
  %34 = call i64 @fwrite(ptr noundef nonnull %3, i64 noundef 92, i64 noundef 1, ptr noundef nonnull %8)
  %35 = load ptr, ptr %5, align 8
  %36 = getelementptr inbounds i8, ptr %35, i64 84
  %37 = load i32, ptr %36, align 4
  %38 = icmp sgt i32 %37, 0
  br i1 %38, label %.lr.ph39, label %._crit_edge40

.lr.ph39:                                         ; preds = %._crit_edge
  %39 = getelementptr inbounds i8, ptr %4, i64 4
  br label %40

40:                                               ; preds = %.lr.ph39, %60
  %41 = phi ptr [ %35, %.lr.ph39 ], [ %61, %60 ]
  %indvars.iv43 = phi i64 [ 0, %.lr.ph39 ], [ %indvars.iv.next44, %60 ]
  %42 = getelementptr inbounds i8, ptr %41, i64 24
  %43 = load ptr, ptr %42, align 8
  %44 = getelementptr inbounds %struct.dtCompressedTile, ptr %43, i64 %indvars.iv43
  %.not27 = icmp eq ptr %43, null
  br i1 %.not27, label %60, label %45

45:                                               ; preds = %40
  %46 = getelementptr inbounds i8, ptr %44, i64 8
  %47 = load ptr, ptr %46, align 8
  %.not28 = icmp eq ptr %47, null
  br i1 %.not28, label %60, label %48

48:                                               ; preds = %45
  %49 = getelementptr inbounds i8, ptr %44, i64 40
  %50 = load i32, ptr %49, align 8
  %.not29 = icmp eq i32 %50, 0
  br i1 %.not29, label %60, label %51

51:                                               ; preds = %48
  %52 = tail call noundef i32 @_ZNK11dtTileCache10getTileRefEPK16dtCompressedTile(ptr noundef nonnull align 8 dereferenceable(912) %41, ptr noundef nonnull %44)
  store i32 %52, ptr %4, align 4
  %53 = load i32, ptr %49, align 8
  store i32 %53, ptr %39, align 4
  %54 = call i64 @fwrite(ptr noundef nonnull %4, i64 noundef 8, i64 noundef 1, ptr noundef nonnull %8)
  %55 = getelementptr inbounds i8, ptr %44, i64 32
  %56 = load ptr, ptr %55, align 8
  %57 = load i32, ptr %49, align 8
  %58 = sext i32 %57 to i64
  %59 = tail call i64 @fwrite(ptr noundef %56, i64 noundef %58, i64 noundef 1, ptr noundef nonnull %8)
  %.pre = load ptr, ptr %5, align 8
  br label %60

60:                                               ; preds = %40, %45, %48, %51
  %61 = phi ptr [ %41, %40 ], [ %41, %45 ], [ %41, %48 ], [ %.pre, %51 ]
  %indvars.iv.next44 = add nuw nsw i64 %indvars.iv43, 1
  %62 = getelementptr inbounds i8, ptr %61, i64 84
  %63 = load i32, ptr %62, align 4
  %64 = sext i32 %63 to i64
  %65 = icmp slt i64 %indvars.iv.next44, %64
  br i1 %65, label %40, label %._crit_edge40, !llvm.loop !19

._crit_edge40:                                    ; preds = %60, %._crit_edge
  %66 = tail call i32 @fclose(ptr noundef nonnull %8)
  br label %67

67:                                               ; preds = %7, %2, %._crit_edge40
  ret void
}